target datalayout = "e-m:e-p270:32:32-p271:32:32-p272:64:64-i64:64-i128:128-f80:128-n8:16:32:64-S128"
target triple = "x86_64-pc-linux-gnu"

%"class.std::__1::pmr::memory_resource" = type { ptr }
%"class.std::__1::pmr::unsynchronized_pool_resource::__adhoc_pool" = type { ptr }
%"class.std::__1::pmr::unsynchronized_pool_resource" = type { %"class.std::__1::pmr::memory_resource", ptr, %"class.std::__1::pmr::unsynchronized_pool_resource::__adhoc_pool", ptr, i32, i32 }
%"struct.std::__1::pmr::pool_options" = type { i64, i64 }

; Function Attrs: mustprogress nounwind uwtable
define dso_local void @_ZNSt3__13pmr15memory_resourceD2Ev(ptr noundef nonnull align 8 dereferenceable(8) %0) unnamed_addr #0 align 2 {
  %2 = alloca ptr, align 8
  store ptr %0, ptr %2, align 8, !tbaa !4
  ret void
}

; Function Attrs: mustprogress nounwind uwtable
define linkonce_odr hidden void @_ZNSt3__13pmr28unsynchronized_pool_resource12__adhoc_poolC2B8ne210000Ev(ptr noundef nonnull align 8 dereferenceable(8) %0) unnamed_addr #0 comdat align 2 {
  %2 = alloca ptr, align 8
  store ptr %0, ptr %2, align 8, !tbaa !15
  %3 = load ptr, ptr %2, align 8
  %4 = getelementptr inbounds nuw %"class.std::__1::pmr::unsynchronized_pool_resource::__adhoc_pool", ptr %3, i32 0, i32 0
  store ptr null, ptr %4, align 8, !tbaa !17
  ret void
}

; Function Attrs: inlinehint mustprogress nounwind uwtable
define linkonce_odr hidden void @_ZNSt3__13pmr15memory_resourceC2Ev(ptr noundef nonnull align 8 dereferenceable(8) %0) unnamed_addr #9 comdat align 2 {
  %2 = alloca ptr, align 8
  store ptr %0, ptr %2, align 8, !tbaa !4
  %3 = load ptr, ptr %2, align 8
  store ptr getelementptr inbounds inrange(-16, 40) ({ [7 x ptr] }, ptr @_ZTVNSt3__13pmr15memory_resourceE, i32 0, i32 0, i32 2), ptr %3, align 8, !tbaa !31
  ret void
}

; Function Attrs: mustprogress uwtable
define dso_local void @_ZNSt3__13pmr28unsynchronized_pool_resourceC2ERKNS0_12pool_optionsEPNS0_15memory_resourceE(ptr noundef nonnull align 8 dereferenceable(40) %0, ptr noundef nonnull align 8 dereferenceable(16) %1, ptr noundef %2) unnamed_addr #5 align 2 personality ptr @__gxx_personality_v0 {
  %4 = alloca ptr, align 8
  %5 = alloca ptr, align 8
  %6 = alloca ptr, align 8
  %7 = alloca ptr, align 8
  %8 = alloca i32, align 4
  %9 = alloca i64, align 8
  %10 = alloca i64, align 8
  store ptr %0, ptr %4, align 8, !tbaa !34
  store ptr %1, ptr %5, align 8, !tbaa !43
  store ptr %2, ptr %6, align 8, !tbaa !4
  %11 = load ptr, ptr %4, align 8
  call void @_ZNSt3__13pmr15memory_resourceC2Ev(ptr noundef nonnull align 8 dereferenceable(8) %11) #3
  store ptr getelementptr inbounds inrange(-16, 40) ({ [7 x ptr] }, ptr @_ZTVNSt3__13pmr28unsynchronized_pool_resourceE, i32 0, i32 0, i32 2), ptr %11, align 8, !tbaa !31
  %12 = getelementptr inbounds nuw %"class.std::__1::pmr::unsynchronized_pool_resource", ptr %11, i32 0, i32 1
  %13 = load ptr, ptr %6, align 8, !tbaa !4
  store ptr %13, ptr %12, align 8, !tbaa !45
  %14 = getelementptr inbounds nuw %"class.std::__1::pmr::unsynchronized_pool_resource", ptr %11, i32 0, i32 2
  invoke void @_ZNSt3__13pmr28unsynchronized_pool_resource12__adhoc_poolC2B8ne210000Ev(ptr noundef nonnull align 8 dereferenceable(8) %14)
          to label %15 unwind label %22

15:                                               ; preds = %3
  %16 = getelementptr inbounds nuw %"class.std::__1::pmr::unsynchronized_pool_resource", ptr %11, i32 0, i32 3
  store ptr null, ptr %16, align 8, !tbaa !46
  call void @llvm.lifetime.start.p0(i64 8, ptr %9) #3
  %17 = load ptr, ptr %5, align 8, !tbaa !43
  %18 = getelementptr inbounds nuw %"struct.std::__1::pmr::pool_options", ptr %17, i32 0, i32 1
  %19 = load i64, ptr %18, align 8, !tbaa !47
  %20 = icmp eq i64 %19, 0
  br i1 %20, label %21, label %26

21:                                               ; preds = %15
  store i64 1048576, ptr %9, align 8, !tbaa !30
  br label %44

22:                                               ; preds = %3
  %23 = landingpad { ptr, i32 }
          cleanup
  %24 = extractvalue { ptr, i32 } %23, 0
  store ptr %24, ptr %7, align 8
  %25 = extractvalue { ptr, i32 } %23, 1
  store i32 %25, ptr %8, align 4
  call void @_ZNSt3__13pmr15memory_resourceD2Ev(ptr noundef nonnull align 8 dereferenceable(8) %11) #3
  br label %86

26:                                               ; preds = %15
  %27 = load ptr, ptr %5, align 8, !tbaa !43
  %28 = getelementptr inbounds nuw %"struct.std::__1::pmr::pool_options", ptr %27, i32 0, i32 1
  %29 = load i64, ptr %28, align 8, !tbaa !47
  %30 = icmp ult i64 %29, 8
  br i1 %30, label %31, label %32

31:                                               ; preds = %26
  store i64 8, ptr %9, align 8, !tbaa !30
  br label %43

32:                                               ; preds = %26
  %33 = load ptr, ptr %5, align 8, !tbaa !43
  %34 = getelementptr inbounds nuw %"struct.std::__1::pmr::pool_options", ptr %33, i32 0, i32 1
  %35 = load i64, ptr %34, align 8, !tbaa !47
  %36 = icmp ugt i64 %35, 1073741824
  br i1 %36, label %37, label %38

37:                                               ; preds = %32
  store i64 1073741824, ptr %9, align 8, !tbaa !30
  br label %42

38:                                               ; preds = %32
  %39 = load ptr, ptr %5, align 8, !tbaa !43
  %40 = getelementptr inbounds nuw %"struct.std::__1::pmr::pool_options", ptr %39, i32 0, i32 1
  %41 = load i64, ptr %40, align 8, !tbaa !47
  store i64 %41, ptr %9, align 8, !tbaa !30
  br label %42

42:                                               ; preds = %38, %37
  br label %43

43:                                               ; preds = %42, %31
  br label %44

44:                                               ; preds = %43, %21
  %45 = load ptr, ptr %5, align 8, !tbaa !43
  %46 = getelementptr inbounds nuw %"struct.std::__1::pmr::pool_options", ptr %45, i32 0, i32 0
  %47 = load i64, ptr %46, align 8, !tbaa !49
  %48 = icmp eq i64 %47, 0
  br i1 %48, label %49, label %51

49:                                               ; preds = %44
  %50 = getelementptr inbounds nuw %"class.std::__1::pmr::unsynchronized_pool_resource", ptr %11, i32 0, i32 5
  store i32 1048576, ptr %50, align 4, !tbaa !50
  br label %73

51:                                               ; preds = %44
  %52 = load ptr, ptr %5, align 8, !tbaa !43
  %53 = getelementptr inbounds nuw %"struct.std::__1::pmr::pool_options", ptr %52, i32 0, i32 0
  %54 = load i64, ptr %53, align 8, !tbaa !49
  %55 = icmp ult i64 %54, 16
  br i1 %55, label %56, label %58

56:                                               ; preds = %51
  %57 = getelementptr inbounds nuw %"class.std::__1::pmr::unsynchronized_pool_resource", ptr %11, i32 0, i32 5
  store i32 16, ptr %57, align 4, !tbaa !50
  br label %72

58:                                               ; preds = %51
  %59 = load ptr, ptr %5, align 8, !tbaa !43
  %60 = getelementptr inbounds nuw %"struct.std::__1::pmr::pool_options", ptr %59, i32 0, i32 0
  %61 = load i64, ptr %60, align 8, !tbaa !49
  %62 = icmp ugt i64 %61, 1048576
  br i1 %62, label %63, label %65

63:                                               ; preds = %58
  %64 = getelementptr inbounds nuw %"class.std::__1::pmr::unsynchronized_pool_resource", ptr %11, i32 0, i32 5
  store i32 1048576, ptr %64, align 4, !tbaa !50
  br label %71

65:                                               ; preds = %58
  %66 = load ptr, ptr %5, align 8, !tbaa !43
  %67 = getelementptr inbounds nuw %"struct.std::__1::pmr::pool_options", ptr %66, i32 0, i32 0
  %68 = load i64, ptr %67, align 8, !tbaa !49
  %69 = trunc i64 %68 to i32
  %70 = getelementptr inbounds nuw %"class.std::__1::pmr::unsynchronized_pool_resource", ptr %11, i32 0, i32 5
  store i32 %69, ptr %70, align 4, !tbaa !50
  br label %71

71:                                               ; preds = %65, %63
  br label %72

72:                                               ; preds = %71, %56
  br label %73

73:                                               ; preds = %72, %49
  %74 = getelementptr inbounds nuw %"class.std::__1::pmr::unsynchronized_pool_resource", ptr %11, i32 0, i32 4
  store i32 1, ptr %74, align 8, !tbaa !38
  call void @llvm.lifetime.start.p0(i64 8, ptr %10) #3
  store i64 8, ptr %10, align 8, !tbaa !30
  br label %75

75:                                               ; preds = %79, %73
  %76 = load i64, ptr %10, align 8, !tbaa !30
  %77 = load i64, ptr %9, align 8, !tbaa !30
  %78 = icmp ult i64 %76, %77
  br i1 %78, label %79, label %85

79:                                               ; preds = %75
  %80 = load i64, ptr %10, align 8, !tbaa !30
  %81 = shl i64 %80, 1
  store i64 %81, ptr %10, align 8, !tbaa !30
  %82 = getelementptr inbounds nuw %"class.std::__1::pmr::unsynchronized_pool_resource", ptr %11, i32 0, i32 4
  %83 = load i32, ptr %82, align 8, !tbaa !38
  %84 = add nsw i32 %83, 1
  store i32 %84, ptr %82, align 8, !tbaa !38
  br label %75, !llvm.loop !51

85:                                               ; preds = %75
  call void @llvm.lifetime.end.p0(i64 8, ptr %10) #3
  call void @llvm.lifetime.end.p0(i64 8, ptr %9) #3
  ret void

86:                                               ; preds = %22
  %87 = load ptr, ptr %7, align 8
  %88 = load i32, ptr %8, align 4
  %89 = insertvalue { ptr, i32 } poison, ptr %87, 0
  %90 = insertvalue { ptr, i32 } %89, i32 %88, 1
  resume { ptr, i32 } %90
}