; Function Attrs: mustprogress nofree norecurse nosync nounwind memory(argmem: readwrite) uwtable
define dso_local void @_ZNSt3__13pmr28unsynchronized_pool_resourceC2ERKNS0_12pool_optionsEPNS0_15memory_resourceE(ptr noundef nonnull writeonly align 8 captures(none) dereferenceable(40) initializes((0, 32), (36, 40)) %0, ptr noundef nonnull readonly align 8 captures(none) dereferenceable(16) %1, ptr noundef %2) unnamed_addr #7 align 2 personality ptr @__gxx_personality_v0 {
  store ptr getelementptr inbounds nuw inrange(-16, 40) (i8, ptr @_ZTVNSt3__13pmr28unsynchronized_pool_resourceE, i64 16), ptr %0, align 8, !tbaa !16
  %4 = getelementptr inbounds nuw i8, ptr %0, i64 8
  store ptr %2, ptr %4, align 8, !tbaa !29
  %5 = getelementptr inbounds nuw i8, ptr %0, i64 16
  %6 = getelementptr inbounds nuw i8, ptr %1, i64 8
  tail call void @llvm.memset.p0.i64(ptr noundef nonnull align 8 dereferenceable(16) %5, i8 0, i64 16, i1 false)
  %7 = load i64, ptr %6, align 8, !tbaa !30
  %8 = icmp eq i64 %7, 0
  br i1 %8, label %12, label %9

9:                                                ; preds = %3
  %10 = icmp ult i64 %7, 8
  br i1 %10, label %12, label %11

11:                                               ; preds = %9
  %. = tail call i64 @llvm.umin.i64(i64 %7, i64 1073741824)
  br label %12

12:                                               ; preds = %11, %9, %3
  %.012 = phi i64 [ 1048576, %3 ], [ 8, %9 ], [ %., %11 ]
  %13 = load i64, ptr %1, align 8, !tbaa !32
  %14 = icmp eq i64 %13, 0
  br i1 %14, label %18, label %15

15:                                               ; preds = %12
  %16 = icmp ult i64 %13, 16
  br i1 %16, label %18, label %17

17:                                               ; preds = %15
  %spec.select18 = tail call i64 @llvm.umin.i64(i64 %13, i64 1048576)
  %spec.select = trunc nuw nsw i64 %spec.select18 to i32
  br label %18

18:                                               ; preds = %17, %15, %12
  %.sink = phi i32 [ 1048576, %12 ], [ 16, %15 ], [ %spec.select, %17 ]
  %19 = getelementptr inbounds nuw i8, ptr %0, i64 36
  store i32 %.sink, ptr %19, align 4, !tbaa !33
  %20 = icmp samesign ugt i64 %.012, 8
  br i1 %20, label %.lr.ph, label %._crit_edge

.lr.ph:                                           ; preds = %18, %.lr.ph
  %.016 = phi i64 [ %21, %.lr.ph ], [ 8, %18 ]
  %storemerge15 = phi i32 [ %22, %.lr.ph ], [ 1, %18 ]
  %21 = shl nuw nsw i64 %.016, 1
  %22 = add nuw nsw i32 %storemerge15, 1
  %23 = icmp samesign ult i64 %21, %.012
  br i1 %23, label %.lr.ph, label %._crit_edge, !llvm.loop !34

._crit_edge:                                      ; preds = %.lr.ph, %18
  %storemerge.lcssa = phi i32 [ 1, %18 ], [ %22, %.lr.ph ]
  %24 = getelementptr inbounds nuw i8, ptr %0, i64 32
  store i32 %storemerge.lcssa, ptr %24, align 8, !tbaa !22
  ret void
}